target datalayout = "e-m:e-p270:32:32-p271:32:32-p272:64:64-i64:64-f80:128-n8:16:32:64-S128"
target triple = "x86_64-pc-linux-gnu"

@a = common dso_local global [10 x [10 x i32]] zeroinitializer, align 16
@b = common dso_local global [10 x [10 x i32]] zeroinitializer, align 16
@n = common dso_local global i32 0, align 4
@.str = private unnamed_addr constant [5 x i8] c"%d%d\00", align 1
@.str.1 = private unnamed_addr constant [4 x i8] c"%d \00", align 1
@.str.2 = private unnamed_addr constant [4 x i8] c"%d\0A\00", align 1

; Function Attrs: noinline nounwind uwtable
define dso_local void @inf(i32 %0) #0 {
  %2 = alloca i32, align 4
  %3 = alloca i32, align 4
  %4 = alloca i32, align 4
  store i32 %0, i32* %2, align 4
  store i32 1, i32* %3, align 4
  br label %5

5:                                                ; preds = %107, %1
  %6 = load i32, i32* %3, align 4
  %7 = icmp sle i32 %6, 9
  br i1 %7, label %8, label %110

8:                                                ; preds = %5
  store i32 1, i32* %4, align 4
  br label %9

9:                                                ; preds = %103, %8
  %10 = load i32, i32* %4, align 4
  %11 = icmp sle i32 %10, 9
  br i1 %11, label %12, label %106

12:                                               ; preds = %9
  %13 = load i32, i32* %3, align 4
  %14 = sext i32 %13 to i64
  %15 = getelementptr inbounds [10 x [10 x i32]], [10 x [10 x i32]]* @a, i64 0, i64 %14
  %16 = load i32, i32* %4, align 4
  %17 = sext i32 %16 to i64
  %18 = getelementptr inbounds [10 x i32], [10 x i32]* %15, i64 0, i64 %17
  %19 = load i32, i32* %18, align 4
  %20 = mul nsw i32 2, %19
  %21 = load i32, i32* %3, align 4
  %22 = sext i32 %21 to i64
  %23 = getelementptr inbounds [10 x [10 x i32]], [10 x [10 x i32]]* @a, i64 0, i64 %22
  %24 = load i32, i32* %4, align 4
  %25 = add nsw i32 %24, 1
  %26 = sext i32 %25 to i64
  %27 = getelementptr inbounds [10 x i32], [10 x i32]* %23, i64 0, i64 %26
  %28 = load i32, i32* %27, align 4
  %29 = add nsw i32 %20, %28
  %30 = load i32, i32* %3, align 4
  %31 = add nsw i32 %30, 1
  %32 = sext i32 %31 to i64
  %33 = getelementptr inbounds [10 x [10 x i32]], [10 x [10 x i32]]* @a, i64 0, i64 %32
  %34 = load i32, i32* %4, align 4
  %35 = sext i32 %34 to i64
  %36 = getelementptr inbounds [10 x i32], [10 x i32]* %33, i64 0, i64 %35
  %37 = load i32, i32* %36, align 4
  %38 = add nsw i32 %29, %37
  %39 = load i32, i32* %3, align 4
  %40 = sext i32 %39 to i64
  %41 = getelementptr inbounds [10 x [10 x i32]], [10 x [10 x i32]]* @a, i64 0, i64 %40
  %42 = load i32, i32* %4, align 4
  %43 = sub nsw i32 %42, 1
  %44 = sext i32 %43 to i64
  %45 = getelementptr inbounds [10 x i32], [10 x i32]* %41, i64 0, i64 %44
  %46 = load i32, i32* %45, align 4
  %47 = add nsw i32 %38, %46
  %48 = load i32, i32* %3, align 4
  %49 = sub nsw i32 %48, 1
  %50 = sext i32 %49 to i64
  %51 = getelementptr inbounds [10 x [10 x i32]], [10 x [10 x i32]]* @a, i64 0, i64 %50
  %52 = load i32, i32* %4, align 4
  %53 = sext i32 %52 to i64
  %54 = getelementptr inbounds [10 x i32], [10 x i32]* %51, i64 0, i64 %53
  %55 = load i32, i32* %54, align 4
  %56 = add nsw i32 %47, %55
  %57 = load i32, i32* %3, align 4
  %58 = add nsw i32 %57, 1
  %59 = sext i32 %58 to i64
  %60 = getelementptr inbounds [10 x [10 x i32]], [10 x [10 x i32]]* @a, i64 0, i64 %59
  %61 = load i32, i32* %4, align 4
  %62 = add nsw i32 %61, 1
  %63 = sext i32 %62 to i64
  %64 = getelementptr inbounds [10 x i32], [10 x i32]* %60, i64 0, i64 %63
  %65 = load i32, i32* %64, align 4
  %66 = add nsw i32 %56, %65
  %67 = load i32, i32* %3, align 4
  %68 = sub nsw i32 %67, 1
  %69 = sext i32 %68 to i64
  %70 = getelementptr inbounds [10 x [10 x i32]], [10 x [10 x i32]]* @a, i64 0, i64 %69
  %71 = load i32, i32* %4, align 4
  %72 = sub nsw i32 %71, 1
  %73 = sext i32 %72 to i64
  %74 = getelementptr inbounds [10 x i32], [10 x i32]* %70, i64 0, i64 %73
  %75 = load i32, i32* %74, align 4
  %76 = add nsw i32 %66, %75
  %77 = load i32, i32* %3, align 4
  %78 = add nsw i32 %77, 1
  %79 = sext i32 %78 to i64
  %80 = getelementptr inbounds [10 x [10 x i32]], [10 x [10 x i32]]* @a, i64 0, i64 %79
  %81 = load i32, i32* %4, align 4
  %82 = sub nsw i32 %81, 1
  %83 = sext i32 %82 to i64
  %84 = getelementptr inbounds [10 x i32], [10 x i32]* %80, i64 0, i64 %83
  %85 = load i32, i32* %84, align 4
  %86 = add nsw i32 %76, %85
  %87 = load i32, i32* %3, align 4
  %88 = sub nsw i32 %87, 1
  %89 = sext i32 %88 to i64
  %90 = getelementptr inbounds [10 x [10 x i32]], [10 x [10 x i32]]* @a, i64 0, i64 %89
  %91 = load i32, i32* %4, align 4
  %92 = add nsw i32 %91, 1
  %93 = sext i32 %92 to i64
  %94 = getelementptr inbounds [10 x i32], [10 x i32]* %90, i64 0, i64 %93
  %95 = load i32, i32* %94, align 4
  %96 = add nsw i32 %86, %95
  %97 = load i32, i32* %3, align 4
  %98 = sext i32 %97 to i64
  %99 = getelementptr inbounds [10 x [10 x i32]], [10 x [10 x i32]]* @b, i64 0, i64 %98
  %100 = load i32, i32* %4, align 4
  %101 = sext i32 %100 to i64
  %102 = getelementptr inbounds [10 x i32], [10 x i32]* %99, i64 0, i64 %101
  store i32 %96, i32* %102, align 4
  br label %103

103:                                              ; preds = %12
  %104 = load i32, i32* %4, align 4
  %105 = add nsw i32 %104, 1
  store i32 %105, i32* %4, align 4
  br label %9

106:                                              ; preds = %9
  br label %107

107:                                              ; preds = %106
  %108 = load i32, i32* %3, align 4
  %109 = add nsw i32 %108, 1
  store i32 %109, i32* %3, align 4
  br label %5

110:                                              ; preds = %5
  store i32 1, i32* %3, align 4
  br label %111

111:                                              ; preds = %136, %110
  %112 = load i32, i32* %3, align 4
  %113 = icmp sle i32 %112, 9
  br i1 %113, label %114, label %139

114:                                              ; preds = %111
  store i32 1, i32* %4, align 4
  br label %115

115:                                              ; preds = %132, %114
  %116 = load i32, i32* %4, align 4
  %117 = icmp sle i32 %116, 9
  br i1 %117, label %118, label %135

118:                                              ; preds = %115
  %119 = load i32, i32* %3, align 4
  %120 = sext i32 %119 to i64
  %121 = getelementptr inbounds [10 x [10 x i32]], [10 x [10 x i32]]* @b, i64 0, i64 %120
  %122 = load i32, i32* %4, align 4
  %123 = sext i32 %122 to i64
  %124 = getelementptr inbounds [10 x i32], [10 x i32]* %121, i64 0, i64 %123
  %125 = load i32, i32* %124, align 4
  %126 = load i32, i32* %3, align 4
  %127 = sext i32 %126 to i64
  %128 = getelementptr inbounds [10 x [10 x i32]], [10 x [10 x i32]]* @a, i64 0, i64 %127
  %129 = load i32, i32* %4, align 4
  %130 = sext i32 %129 to i64
  %131 = getelementptr inbounds [10 x i32], [10 x i32]* %128, i64 0, i64 %130
  store i32 %125, i32* %131, align 4
  br label %132

132:                                              ; preds = %118
  %133 = load i32, i32* %4, align 4
  %134 = add nsw i32 %133, 1
  store i32 %134, i32* %4, align 4
  br label %115

135:                                              ; preds = %115
  br label %136

136:                                              ; preds = %135
  %137 = load i32, i32* %3, align 4
  %138 = add nsw i32 %137, 1
  store i32 %138, i32* %3, align 4
  br label %111

139:                                              ; preds = %111
  %140 = load i32, i32* %2, align 4
  %141 = load i32, i32* @n, align 4
  %142 = icmp slt i32 %140, %141
  br i1 %142, label %143, label %146

143:                                              ; preds = %139
  %144 = load i32, i32* %2, align 4
  %145 = add nsw i32 %144, 1
  call void @inf(i32 %145)
  br label %146

146:                                              ; preds = %143, %139
  ret void
}

; Function Attrs: noinline nounwind uwtable
define dso_local i32 @main() #0 {
  %1 = alloca i32, align 4
  %2 = alloca i32, align 4
  %3 = alloca i32, align 4
  store i32 0, i32* %1, align 4
  %4 = call i32 (i8*, ...) @__isoc99_scanf(i8* getelementptr inbounds ([5 x i8], [5 x i8]* @.str, i64 0, i64 0), i32* getelementptr inbounds ([10 x [10 x i32]], [10 x [10 x i32]]* @a, i64 0, i64 5, i64 5), i32* @n)
  call void @inf(i32 1)
  store i32 1, i32* %2, align 4
  br label %5

5:                                                ; preds = %31, %0
  %6 = load i32, i32* %2, align 4
  %7 = icmp sle i32 %6, 9
  br i1 %7, label %8, label %34

8:                                                ; preds = %5
  store i32 1, i32* %3, align 4
  br label %9

9:                                                ; preds = %21, %8
  %10 = load i32, i32* %3, align 4
  %11 = icmp sle i32 %10, 8
  br i1 %11, label %12, label %24

12:                                               ; preds = %9
  %13 = load i32, i32* %2, align 4
  %14 = sext i32 %13 to i64
  %15 = getelementptr inbounds [10 x [10 x i32]], [10 x [10 x i32]]* @a, i64 0, i64 %14
  %16 = load i32, i32* %3, align 4
  %17 = sext i32 %16 to i64
  %18 = getelementptr inbounds [10 x i32], [10 x i32]* %15, i64 0, i64 %17
  %19 = load i32, i32* %18, align 4
  %20 = call i32 (i8*, ...) @printf(i8* getelementptr inbounds ([4 x i8], [4 x i8]* @.str.1, i64 0, i64 0), i32 %19)
  br label %21

21:                                               ; preds = %12
  %22 = load i32, i32* %3, align 4
  %23 = add nsw i32 %22, 1
  store i32 %23, i32* %3, align 4
  br label %9

24:                                               ; preds = %9
  %25 = load i32, i32* %2, align 4
  %26 = sext i32 %25 to i64
  %27 = getelementptr inbounds [10 x [10 x i32]], [10 x [10 x i32]]* @a, i64 0, i64 %26
  %28 = getelementptr inbounds [10 x i32], [10 x i32]* %27, i64 0, i64 9
  %29 = load i32, i32* %28, align 4
  %30 = call i32 (i8*, ...) @printf(i8* getelementptr inbounds ([4 x i8], [4 x i8]* @.str.2, i64 0, i64 0), i32 %29)
  br label %31

31:                                               ; preds = %24
  %32 = load i32, i32* %2, align 4
  %33 = add nsw i32 %32, 1
  store i32 %33, i32* %2, align 4
  br label %5

34:                                               ; preds = %5
  ret i32 0
}